target datalayout = "e-m:e-p270:32:32-p271:32:32-p272:64:64-i64:64-i128:128-f80:128-n8:16:32:64-S128"
target triple = "x86_64-pc-linux-gnu"

%union.ufmt_args = type { i64 }
%struct.u_scanf_spec_info = type { i32, i16, i16, i8, i8, i8, i8, i8, i8 }

; Function Attrs: inlinehint mustprogress nounwind uwtable
define internal noundef signext i8 @_ZL9U_SUCCESS10UErrorCode(i32 noundef %0) #4 {
  %2 = alloca i32, align 4
  store i32 %0, ptr %2, align 4, !tbaa !54
  %3 = load i32, ptr %2, align 4, !tbaa !54
  %4 = icmp sle i32 %3, 0
  %5 = zext i1 %4 to i8
  ret i8 %5
}

; Function Attrs: mustprogress uwtable
define internal noundef i32 @_ZL23u_scanf_scanset_handlerP5UFILEP17u_scanf_spec_infoP9ufmt_argsPKDsPiS7_(ptr noundef %0, ptr noundef %1, ptr noundef %2, ptr noundef %3, ptr noundef %4, ptr noundef %5) #0 {
  %7 = alloca i32, align 4
  %8 = alloca ptr, align 8
  %9 = alloca ptr, align 8
  %10 = alloca ptr, align 8
  %11 = alloca ptr, align 8
  %12 = alloca ptr, align 8
  %13 = alloca ptr, align 8
  %14 = alloca ptr, align 8
  %15 = alloca i32, align 4
  %16 = alloca i32, align 4
  %17 = alloca i32, align 4
  %18 = alloca ptr, align 8
  %19 = alloca i8, align 1
  %20 = alloca i8, align 1
  %21 = alloca i32, align 4
  %22 = alloca i8, align 1
  %23 = alloca i32, align 4
  store ptr %0, ptr %8, align 8, !tbaa !3
  store ptr %1, ptr %9, align 8, !tbaa !35
  store ptr %2, ptr %10, align 8, !tbaa !50
  store ptr %3, ptr %11, align 8, !tbaa !8
  store ptr %4, ptr %12, align 8, !tbaa !52
  store ptr %5, ptr %13, align 8, !tbaa !52
  call void @llvm.lifetime.start.p0(i64 8, ptr %14) #5
  call void @llvm.lifetime.start.p0(i64 4, ptr %15) #5
  store i32 0, ptr %15, align 4, !tbaa !54
  call void @llvm.lifetime.start.p0(i64 4, ptr %16) #5
  store i32 2147483647, ptr %16, align 4, !tbaa !12
  call void @llvm.lifetime.start.p0(i64 4, ptr %17) #5
  call void @llvm.lifetime.start.p0(i64 8, ptr %18) #5
  %24 = load ptr, ptr %10, align 8, !tbaa !50
  %25 = getelementptr inbounds %union.ufmt_args, ptr %24, i64 0
  %26 = load ptr, ptr %25, align 8, !tbaa !28
  store ptr %26, ptr %18, align 8, !tbaa !8
  call void @llvm.lifetime.start.p0(i64 1, ptr %19) #5
  store i8 0, ptr %19, align 1, !tbaa !28
  call void @llvm.lifetime.start.p0(i64 1, ptr %20) #5
  store i8 0, ptr %20, align 1, !tbaa !28
  %27 = call ptr @uset_open_77(i32 noundef 0, i32 noundef -1)
  store ptr %27, ptr %14, align 8, !tbaa !76
  %28 = load ptr, ptr %11, align 8, !tbaa !8
  %29 = getelementptr inbounds i16, ptr %28, i32 -1
  store ptr %29, ptr %11, align 8, !tbaa !8
  %30 = load ptr, ptr %9, align 8, !tbaa !35
  %31 = getelementptr inbounds nuw %struct.u_scanf_spec_info, ptr %30, i32 0, i32 0
  %32 = load i32, ptr %31, align 4, !tbaa !38
  %33 = icmp sge i32 %32, 0
  br i1 %33, label %34, label %38

34:                                               ; preds = %6
  %35 = load ptr, ptr %9, align 8, !tbaa !35
  %36 = getelementptr inbounds nuw %struct.u_scanf_spec_info, ptr %35, i32 0, i32 0
  %37 = load i32, ptr %36, align 4, !tbaa !38
  store i32 %37, ptr %16, align 4, !tbaa !12
  br label %38

38:                                               ; preds = %34, %6
  %39 = load ptr, ptr %14, align 8, !tbaa !76
  %40 = load ptr, ptr %11, align 8, !tbaa !8
  %41 = call i32 @uset_applyPattern_77(ptr noundef %39, ptr noundef %40, i32 noundef -1, i32 noundef 0, ptr noundef %15)
  %42 = load ptr, ptr %12, align 8, !tbaa !52
  store i32 %41, ptr %42, align 4, !tbaa !12
  %43 = load i32, ptr %15, align 4, !tbaa !54
  %44 = call noundef signext i8 @_ZL9U_SUCCESS10UErrorCode(i32 noundef %43)
  %45 = icmp ne i8 %44, 0
  br i1 %45, label %46, label %141

46:                                               ; preds = %38
  store i32 0, ptr %17, align 4, !tbaa !12
  br label %47

47:                                               ; preds = %129, %46
  %48 = load i32, ptr %16, align 4, !tbaa !12
  %49 = icmp sgt i32 %48, 0
  br i1 %49, label %50, label %130

50:                                               ; preds = %47
  %51 = load ptr, ptr %8, align 8, !tbaa !3
  %52 = call signext i8 @ufile_getch32_77(ptr noundef %51, ptr noundef %17)
  store i8 %52, ptr %19, align 1, !tbaa !28
  %53 = sext i8 %52 to i32
  %54 = icmp eq i32 %53, 1
  br i1 %54, label %55, label %128

55:                                               ; preds = %50
  %56 = load ptr, ptr %14, align 8, !tbaa !76
  %57 = load i32, ptr %17, align 4, !tbaa !12
  %58 = call signext i8 @uset_contains_77(ptr noundef %56, i32 noundef %57)
  %59 = icmp ne i8 %58, 0
  br i1 %59, label %60, label %128

60:                                               ; preds = %55
  store i8 1, ptr %20, align 1, !tbaa !28
  %61 = load ptr, ptr %9, align 8, !tbaa !35
  %62 = getelementptr inbounds nuw %struct.u_scanf_spec_info, ptr %61, i32 0, i32 3
  %63 = load i8, ptr %62, align 4, !tbaa !41
  %64 = icmp ne i8 %63, 0
  br i1 %64, label %120, label %65

65:                                               ; preds = %60
  call void @llvm.lifetime.start.p0(i64 4, ptr %21) #5
  store i32 0, ptr %21, align 4, !tbaa !12
  call void @llvm.lifetime.start.p0(i64 1, ptr %22) #5
  store i8 0, ptr %22, align 1, !tbaa !28
  br label %66

66:                                               ; preds = %65
  %67 = load i32, ptr %17, align 4, !tbaa !12
  %68 = icmp ule i32 %67, 65535
  br i1 %68, label %69, label %77

69:                                               ; preds = %66
  %70 = load i32, ptr %17, align 4, !tbaa !12
  %71 = trunc i32 %70 to i16
  %72 = load ptr, ptr %18, align 8, !tbaa !8
  %73 = load i32, ptr %21, align 4, !tbaa !12
  %74 = add nsw i32 %73, 1
  store i32 %74, ptr %21, align 4, !tbaa !12
  %75 = sext i32 %73 to i64
  %76 = getelementptr inbounds i16, ptr %72, i64 %75
  store i16 %71, ptr %76, align 2, !tbaa !14
  br label %106

77:                                               ; preds = %66
  %78 = load i32, ptr %17, align 4, !tbaa !12
  %79 = icmp ule i32 %78, 1114111
  br i1 %79, label %80, label %104

80:                                               ; preds = %77
  %81 = load i32, ptr %21, align 4, !tbaa !12
  %82 = add nsw i32 %81, 1
  %83 = load i32, ptr %16, align 4, !tbaa !12
  %84 = icmp slt i32 %82, %83
  br i1 %84, label %85, label %104

85:                                               ; preds = %80
  %86 = load i32, ptr %17, align 4, !tbaa !12
  %87 = ashr i32 %86, 10
  %88 = add nsw i32 %87, 55232
  %89 = trunc i32 %88 to i16
  %90 = load ptr, ptr %18, align 8, !tbaa !8
  %91 = load i32, ptr %21, align 4, !tbaa !12
  %92 = add nsw i32 %91, 1
  store i32 %92, ptr %21, align 4, !tbaa !12
  %93 = sext i32 %91 to i64
  %94 = getelementptr inbounds i16, ptr %90, i64 %93
  store i16 %89, ptr %94, align 2, !tbaa !14
  %95 = load i32, ptr %17, align 4, !tbaa !12
  %96 = and i32 %95, 1023
  %97 = or i32 %96, 56320
  %98 = trunc i32 %97 to i16
  %99 = load ptr, ptr %18, align 8, !tbaa !8
  %100 = load i32, ptr %21, align 4, !tbaa !12
  %101 = add nsw i32 %100, 1
  store i32 %101, ptr %21, align 4, !tbaa !12
  %102 = sext i32 %100 to i64
  %103 = getelementptr inbounds i16, ptr %99, i64 %102
  store i16 %98, ptr %103, align 2, !tbaa !14
  br label %105

104:                                              ; preds = %80, %77
  store i8 1, ptr %22, align 1, !tbaa !28
  br label %105

105:                                              ; preds = %104, %85
  br label %106

106:                                              ; preds = %105, %69
  br label %107

107:                                              ; preds = %106
  br label %108

108:                                              ; preds = %107
  %109 = load i8, ptr %22, align 1, !tbaa !28
  %110 = icmp ne i8 %109, 0
  br i1 %110, label %111, label %112

111:                                              ; preds = %108
  store i32 3, ptr %23, align 4
  br label %117

112:                                              ; preds = %108
  %113 = load i32, ptr %21, align 4, !tbaa !12
  %114 = load ptr, ptr %18, align 8, !tbaa !8
  %115 = sext i32 %113 to i64
  %116 = getelementptr inbounds i16, ptr %114, i64 %115
  store ptr %116, ptr %18, align 8, !tbaa !8
  store i32 0, ptr %23, align 4
  br label %117

117:                                              ; preds = %112, %111
  call void @llvm.lifetime.end.p0(i64 1, ptr %22) #5
  call void @llvm.lifetime.end.p0(i64 4, ptr %21) #5
  %118 = load i32, ptr %23, align 4
  switch i32 %118, label %177 [
    i32 0, label %119
    i32 3, label %130
  ]

119:                                              ; preds = %117
  br label %120

120:                                              ; preds = %119, %60
  %121 = load i32, ptr %17, align 4, !tbaa !12
  %122 = sub nsw i32 %121, 65536
  %123 = icmp ule i32 %122, 1048575
  %124 = zext i1 %123 to i32
  %125 = add nsw i32 1, %124
  %126 = load i32, ptr %16, align 4, !tbaa !12
  %127 = sub nsw i32 %126, %125
  store i32 %127, ptr %16, align 4, !tbaa !12
  br label %129

128:                                              ; preds = %55, %50
  br label %130

129:                                              ; preds = %120
  br label %47, !llvm.loop !78

130:                                              ; preds = %128, %117, %47
  %131 = load i8, ptr %19, align 1, !tbaa !28
  %132 = icmp ne i8 %131, 0
  br i1 %132, label %133, label %140

133:                                              ; preds = %130
  %134 = load i32, ptr %16, align 4, !tbaa !12
  %135 = icmp sgt i32 %134, 0
  br i1 %135, label %136, label %140

136:                                              ; preds = %133
  %137 = load i32, ptr %17, align 4, !tbaa !12
  %138 = load ptr, ptr %8, align 8, !tbaa !3
  %139 = call i32 @u_fungetc_77(i32 noundef %137, ptr noundef %138)
  br label %140

140:                                              ; preds = %136, %133, %130
  br label %141

141:                                              ; preds = %140, %38
  %142 = load ptr, ptr %14, align 8, !tbaa !76
  call void @uset_close_77(ptr noundef %142)
  %143 = load i8, ptr %20, align 1, !tbaa !28
  %144 = icmp ne i8 %143, 0
  br i1 %144, label %146, label %145

145:                                              ; preds = %141
  store i32 -1, ptr %7, align 4
  store i32 1, ptr %23, align 4
  br label %175

146:                                              ; preds = %141
  %147 = load ptr, ptr %9, align 8, !tbaa !35
  %148 = getelementptr inbounds nuw %struct.u_scanf_spec_info, ptr %147, i32 0, i32 3
  %149 = load i8, ptr %148, align 4, !tbaa !41
  %150 = icmp ne i8 %149, 0
  br i1 %150, label %153, label %151

151:                                              ; preds = %146
  %152 = load ptr, ptr %18, align 8, !tbaa !8
  store i16 0, ptr %152, align 2, !tbaa !14
  br label %153

153:                                              ; preds = %151, %146
  br label %154

154:                                              ; preds = %153
  %155 = load ptr, ptr %9, align 8, !tbaa !35
  %156 = getelementptr inbounds nuw %struct.u_scanf_spec_info, ptr %155, i32 0, i32 3
  %157 = load i8, ptr %156, align 4, !tbaa !41
  %158 = icmp ne i8 %157, 0
  %159 = xor i1 %158, true
  %160 = zext i1 %159 to i32
  %161 = load ptr, ptr %13, align 8, !tbaa !52
  store i32 %160, ptr %161, align 4, !tbaa !12
  %162 = load ptr, ptr %9, align 8, !tbaa !35
  %163 = getelementptr inbounds nuw %struct.u_scanf_spec_info, ptr %162, i32 0, i32 0
  %164 = load i32, ptr %163, align 4, !tbaa !38
  %165 = icmp sge i32 %164, 0
  br i1 %165, label %166, label %170

166:                                              ; preds = %154
  %167 = load ptr, ptr %9, align 8, !tbaa !35
  %168 = getelementptr inbounds nuw %struct.u_scanf_spec_info, ptr %167, i32 0, i32 0
  %169 = load i32, ptr %168, align 4, !tbaa !38
  br label %171

170:                                              ; preds = %154
  br label %171

171:                                              ; preds = %170, %166
  %172 = phi i32 [ %169, %166 ], [ 2147483647, %170 ]
  %173 = load i32, ptr %16, align 4, !tbaa !12
  %174 = sub nsw i32 %172, %173
  store i32 %174, ptr %7, align 4
  store i32 1, ptr %23, align 4
  br label %175

175:                                              ; preds = %171, %145
  call void @llvm.lifetime.end.p0(i64 1, ptr %20) #5
  call void @llvm.lifetime.end.p0(i64 1, ptr %19) #5
  call void @llvm.lifetime.end.p0(i64 8, ptr %18) #5
  call void @llvm.lifetime.end.p0(i64 4, ptr %17) #5
  call void @llvm.lifetime.end.p0(i64 4, ptr %16) #5
  call void @llvm.lifetime.end.p0(i64 4, ptr %15) #5
  call void @llvm.lifetime.end.p0(i64 8, ptr %14) #5
  %176 = load i32, ptr %7, align 4
  ret i32 %176

177:                                              ; preds = %117
  unreachable
}